; Function Attrs: mustprogress uwtable
define hidden noundef i32 @_ZNK4cvc58internal11NodeBuilder14getNumChildrenEv(ptr nocapture noundef nonnull readonly align 8 dereferenceable(116) %this) local_unnamed_addr #3 align 2 {
entry:
  %d_nv = getelementptr inbounds i8, ptr %this, i64 96
  %0 = load ptr, ptr %d_nv, align 8
  %d_kind.i.i.i = getelementptr inbounds i8, ptr %0, i64 8
  %bf.load.i.i.i = load i16, ptr %d_kind.i.i.i, align 8
  %bf.clear.i.i.i = and i16 %bf.load.i.i.i, 1023
  %bf.cast.i.i.i = zext nneg i16 %bf.clear.i.i.i to i32
  %cmp.i.i.i.i = icmp eq i16 %bf.clear.i.i.i, 1023
  %cond.i.i.i.i = select i1 %cmp.i.i.i.i, i32 -1, i32 %bf.cast.i.i.i
  %call2.i.i = tail call noundef i32 @_ZN4cvc58internal4kind10metaKindOfENS1_6Kind_tE(i32 noundef %cond.i.i.i.i)
  %cmp.i = icmp eq i32 %call2.i.i, 2
  %d_nchildren.i = getelementptr inbounds i8, ptr %0, i64 12
  %bf.load.i = load i32, ptr %d_nchildren.i, align 4
  %bf.clear.i = and i32 %bf.load.i, 67108863
  %sub.i = sext i1 %cmp.i to i32
  %cond.i = add nsw i32 %bf.clear.i, %sub.i
  ret i32 %cond.i
}